; Function Attrs: mustprogress uwtable
define hidden void @_ZN4cvc58internal19RealAlgebraicNumberC2ERKNS0_7IntegerE(ptr noundef nonnull align 8 dereferenceable(32) %0, ptr noundef nonnull align 8 dereferenceable(16) %1) unnamed_addr #0 align 2 personality ptr @__gxx_personality_v0 {
  tail call void @__gmpq_init(ptr noundef nonnull align 8 dereferenceable(32) %0)
  tail call void @__gmpq_set_z(ptr noundef nonnull align 8 dereferenceable(32) %0, ptr noundef nonnull align 8 dereferenceable(16) %1)
  invoke void @__gmpq_canonicalize(ptr noundef nonnull align 8 dereferenceable(32) %0)
          to label %_ZN4cvc58internal8RationalC2ERKNS0_7IntegerE.exit unwind label %3

3:                                                ; preds = %2
  %4 = landingpad { ptr, i32 }
          cleanup
  invoke void @__gmpq_clear(ptr noundef nonnull align 8 dereferenceable(32) %0)
          to label %_ZN10__gmp_exprIA1_12__mpq_structS1_ED2Ev.exit.i unwind label %5

5:                                                ; preds = %3
  %6 = landingpad { ptr, i32 }
          catch ptr null
  %7 = extractvalue { ptr, i32 } %6, 0
  tail call void @__clang_call_terminate(ptr %7) #19
  unreachable

_ZN10__gmp_exprIA1_12__mpq_structS1_ED2Ev.exit.i: ; preds = %3
  resume { ptr, i32 } %4

_ZN4cvc58internal8RationalC2ERKNS0_7IntegerE.exit: ; preds = %2
  ret void
}